; Function Attrs: mustprogress uwtable
define void @_ZN6google8protobuf20FieldDescriptorProto8CopyFromERKS1_(ptr noundef nonnull align 8 dereferenceable(96) %this, ptr noundef nonnull readonly align 8 dereferenceable(96) %from) local_unnamed_addr #3 align 2 {
entry:
  %cmp = icmp eq ptr %from, %this
  br i1 %cmp, label %return, label %if.end

if.end:                                           ; preds = %entry
  tail call void @_ZN6google8protobuf20FieldDescriptorProto5ClearEv(ptr noundef nonnull align 8 dereferenceable(96) %this)
  tail call void @_ZN6google8protobuf20FieldDescriptorProto9MergeImplERNS0_11MessageLiteERKS2_(ptr noundef nonnull align 8 dereferenceable(16) %this, ptr noundef nonnull align 8 dereferenceable(16) %from)
  br label %return

return:                                           ; preds = %entry, %if.end
  ret void
}